target datalayout = "e-m:e-p270:32:32-p271:32:32-p272:64:64-i64:64-i128:128-f80:128-n8:16:32:64-S128"
target triple = "x86_64-pc-linux-gnu"

%struct.AVRational = type { i32, i32 }
%struct.AVPacket = type { ptr, i64, i64, ptr, i32, i32, i32, ptr, i32, i64, i64, ptr, ptr, %struct.AVRational }
%struct.AVBufferRef = type { ptr, ptr, i64 }
%struct.PacketListEntry = type { ptr, %struct.AVPacket }
%struct.PacketList = type { ptr, ptr }

; Function Attrs: nounwind uwtable
define internal i32 @packet_alloc(ptr noundef %0, i32 noundef %1) #0 {
  %3 = alloca i32, align 4
  %4 = alloca ptr, align 8
  %5 = alloca i32, align 4
  %6 = alloca i32, align 4
  %7 = alloca i32, align 4
  store ptr %0, ptr %4, align 8, !tbaa !40
  store i32 %1, ptr %5, align 4, !tbaa !28
  call void @llvm.lifetime.start.p0(i64 4, ptr %6) #9
  %8 = load i32, ptr %5, align 4, !tbaa !28
  %9 = icmp slt i32 %8, 0
  br i1 %9, label %13, label %10

10:                                               ; preds = %2
  %11 = load i32, ptr %5, align 4, !tbaa !28
  %12 = icmp sge i32 %11, 2147483583
  br i1 %12, label %13, label %14

13:                                               ; preds = %10, %2
  store i32 -22, ptr %3, align 4
  store i32 1, ptr %7, align 4
  br label %32

14:                                               ; preds = %10
  %15 = load ptr, ptr %4, align 8, !tbaa !40
  %16 = load i32, ptr %5, align 4, !tbaa !28
  %17 = add nsw i32 %16, 64
  %18 = sext i32 %17 to i64
  %19 = call i32 @av_buffer_realloc(ptr noundef %15, i64 noundef %18)
  store i32 %19, ptr %6, align 4, !tbaa !28
  %20 = load i32, ptr %6, align 4, !tbaa !28
  %21 = icmp slt i32 %20, 0
  br i1 %21, label %22, label %24

22:                                               ; preds = %14
  %23 = load i32, ptr %6, align 4, !tbaa !28
  store i32 %23, ptr %3, align 4
  store i32 1, ptr %7, align 4
  br label %32

24:                                               ; preds = %14
  %25 = load ptr, ptr %4, align 8, !tbaa !40
  %26 = load ptr, ptr %25, align 8, !tbaa !34
  %27 = getelementptr inbounds nuw %struct.AVBufferRef, ptr %26, i32 0, i32 1
  %28 = load ptr, ptr %27, align 8, !tbaa !35
  %29 = load i32, ptr %5, align 4, !tbaa !28
  %30 = sext i32 %29 to i64
  %31 = getelementptr inbounds i8, ptr %28, i64 %30
  call void @llvm.memset.p0.i64(ptr align 1 %31, i8 0, i64 64, i1 false)
  store i32 0, ptr %3, align 4
  store i32 1, ptr %7, align 4
  br label %32

32:                                               ; preds = %24, %22, %13
  call void @llvm.lifetime.end.p0(i64 4, ptr %6) #9
  %33 = load i32, ptr %3, align 4
  ret i32 %33
}

; Function Attrs: inlinehint nounwind uwtable
define internal i64 @av_make_q(i32 noundef %0, i32 noundef %1) #2 {
  %3 = alloca %struct.AVRational, align 4
  %4 = alloca i32, align 4
  %5 = alloca i32, align 4
  store i32 %0, ptr %4, align 4, !tbaa !28
  store i32 %1, ptr %5, align 4, !tbaa !28
  %6 = getelementptr inbounds nuw %struct.AVRational, ptr %3, i32 0, i32 0
  %7 = load i32, ptr %4, align 4, !tbaa !28
  store i32 %7, ptr %6, align 4, !tbaa !29
  %8 = getelementptr inbounds nuw %struct.AVRational, ptr %3, i32 0, i32 1
  %9 = load i32, ptr %5, align 4, !tbaa !28
  store i32 %9, ptr %8, align 4, !tbaa !30
  %10 = load i64, ptr %3, align 4
  ret i64 %10
}

; Function Attrs: nounwind uwtable
define void @av_packet_move_ref(ptr noundef %0, ptr noundef %1) #0 {
  %3 = alloca ptr, align 8
  %4 = alloca ptr, align 8
  store ptr %0, ptr %3, align 8, !tbaa !4
  store ptr %1, ptr %4, align 8, !tbaa !4
  %5 = load ptr, ptr %3, align 8, !tbaa !4
  %6 = load ptr, ptr %4, align 8, !tbaa !4
  call void @llvm.memcpy.p0.p0.i64(ptr align 8 %5, ptr align 8 %6, i64 104, i1 false), !tbaa.struct !72
  %7 = load ptr, ptr %4, align 8, !tbaa !4
  call void @get_packet_defaults(ptr noundef %7)
  ret void
}

; Function Attrs: nounwind uwtable
define i32 @av_packet_make_refcounted(ptr noundef %0) #0 {
  %2 = alloca i32, align 4
  %3 = alloca ptr, align 8
  %4 = alloca i32, align 4
  %5 = alloca i32, align 4
  store ptr %0, ptr %3, align 8, !tbaa !4
  call void @llvm.lifetime.start.p0(i64 4, ptr %4) #9
  %6 = load ptr, ptr %3, align 8, !tbaa !4
  %7 = getelementptr inbounds nuw %struct.AVPacket, ptr %6, i32 0, i32 0
  %8 = load ptr, ptr %7, align 8, !tbaa !22
  %9 = icmp ne ptr %8, null
  br i1 %9, label %10, label %11

10:                                               ; preds = %1
  store i32 0, ptr %2, align 4
  store i32 1, ptr %5, align 4
  br label %48

11:                                               ; preds = %1
  %12 = load ptr, ptr %3, align 8, !tbaa !4
  %13 = getelementptr inbounds nuw %struct.AVPacket, ptr %12, i32 0, i32 0
  %14 = load ptr, ptr %3, align 8, !tbaa !4
  %15 = getelementptr inbounds nuw %struct.AVPacket, ptr %14, i32 0, i32 4
  %16 = load i32, ptr %15, align 8, !tbaa !39
  %17 = call i32 @packet_alloc(ptr noundef %13, i32 noundef %16)
  store i32 %17, ptr %4, align 4, !tbaa !28
  %18 = load i32, ptr %4, align 4, !tbaa !28
  %19 = icmp slt i32 %18, 0
  br i1 %19, label %20, label %22

20:                                               ; preds = %11
  %21 = load i32, ptr %4, align 4, !tbaa !28
  store i32 %21, ptr %2, align 4
  store i32 1, ptr %5, align 4
  br label %48

22:                                               ; preds = %11
  %23 = load ptr, ptr %3, align 8, !tbaa !4
  %24 = getelementptr inbounds nuw %struct.AVPacket, ptr %23, i32 0, i32 4
  %25 = load i32, ptr %24, align 8, !tbaa !39
  %26 = icmp ne i32 %25, 0
  br i1 %26, label %27, label %40

27:                                               ; preds = %22
  %28 = load ptr, ptr %3, align 8, !tbaa !4
  %29 = getelementptr inbounds nuw %struct.AVPacket, ptr %28, i32 0, i32 0
  %30 = load ptr, ptr %29, align 8, !tbaa !22
  %31 = getelementptr inbounds nuw %struct.AVBufferRef, ptr %30, i32 0, i32 1
  %32 = load ptr, ptr %31, align 8, !tbaa !35
  %33 = load ptr, ptr %3, align 8, !tbaa !4
  %34 = getelementptr inbounds nuw %struct.AVPacket, ptr %33, i32 0, i32 3
  %35 = load ptr, ptr %34, align 8, !tbaa !38
  %36 = load ptr, ptr %3, align 8, !tbaa !4
  %37 = getelementptr inbounds nuw %struct.AVPacket, ptr %36, i32 0, i32 4
  %38 = load i32, ptr %37, align 8, !tbaa !39
  %39 = sext i32 %38 to i64
  call void @llvm.memcpy.p0.p0.i64(ptr align 1 %32, ptr align 1 %35, i64 %39, i1 false)
  br label %40

40:                                               ; preds = %27, %22
  %41 = load ptr, ptr %3, align 8, !tbaa !4
  %42 = getelementptr inbounds nuw %struct.AVPacket, ptr %41, i32 0, i32 0
  %43 = load ptr, ptr %42, align 8, !tbaa !22
  %44 = getelementptr inbounds nuw %struct.AVBufferRef, ptr %43, i32 0, i32 1
  %45 = load ptr, ptr %44, align 8, !tbaa !35
  %46 = load ptr, ptr %3, align 8, !tbaa !4
  %47 = getelementptr inbounds nuw %struct.AVPacket, ptr %46, i32 0, i32 3
  store ptr %45, ptr %47, align 8, !tbaa !38
  store i32 0, ptr %2, align 4
  store i32 1, ptr %5, align 4
  br label %48

48:                                               ; preds = %40, %20, %10
  call void @llvm.lifetime.end.p0(i64 4, ptr %4) #9
  %49 = load i32, ptr %2, align 4
  ret i32 %49
}

; Function Attrs: nounwind uwtable
define internal void @get_packet_defaults(ptr noundef %0) #0 {
  %2 = alloca ptr, align 8
  %3 = alloca %struct.AVRational, align 4
  store ptr %0, ptr %2, align 8, !tbaa !4
  %4 = load ptr, ptr %2, align 8, !tbaa !4
  call void @llvm.memset.p0.i64(ptr align 8 %4, i8 0, i64 104, i1 false)
  %5 = load ptr, ptr %2, align 8, !tbaa !4
  %6 = getelementptr inbounds nuw %struct.AVPacket, ptr %5, i32 0, i32 1
  store i64 -9223372036854775808, ptr %6, align 8, !tbaa !9
  %7 = load ptr, ptr %2, align 8, !tbaa !4
  %8 = getelementptr inbounds nuw %struct.AVPacket, ptr %7, i32 0, i32 2
  store i64 -9223372036854775808, ptr %8, align 8, !tbaa !17
  %9 = load ptr, ptr %2, align 8, !tbaa !4
  %10 = getelementptr inbounds nuw %struct.AVPacket, ptr %9, i32 0, i32 10
  store i64 -1, ptr %10, align 8, !tbaa !18
  %11 = load ptr, ptr %2, align 8, !tbaa !4
  %12 = getelementptr inbounds nuw %struct.AVPacket, ptr %11, i32 0, i32 13
  call void @llvm.lifetime.start.p0(i64 8, ptr %3) #9
  %13 = call i64 @av_make_q(i32 noundef 0, i32 noundef 1)
  store i64 %13, ptr %3, align 4
  call void @llvm.memcpy.p0.p0.i64(ptr align 8 %12, ptr align 4 %3, i64 8, i1 false), !tbaa.struct !27
  call void @llvm.lifetime.end.p0(i64 8, ptr %3) #9
  ret void
}

; Function Attrs: nounwind uwtable
define i32 @avpriv_packet_list_put(ptr noundef %0, ptr noundef %1, ptr noundef %2, i32 noundef %3) #0 {
  %5 = alloca i32, align 4
  %6 = alloca ptr, align 8
  %7 = alloca ptr, align 8
  %8 = alloca ptr, align 8
  %9 = alloca i32, align 4
  %10 = alloca ptr, align 8
  %11 = alloca i32, align 4
  %12 = alloca i32, align 4
  store ptr %0, ptr %6, align 8, !tbaa !74
  store ptr %1, ptr %7, align 8, !tbaa !4
  store ptr %2, ptr %8, align 8, !tbaa !73
  store i32 %3, ptr %9, align 4, !tbaa !28
  call void @llvm.lifetime.start.p0(i64 8, ptr %10) #9
  %13 = call noalias ptr @av_malloc(i64 noundef 112)
  store ptr %13, ptr %10, align 8, !tbaa !76
  call void @llvm.lifetime.start.p0(i64 4, ptr %11) #9
  %14 = load ptr, ptr %10, align 8, !tbaa !76
  %15 = icmp ne ptr %14, null
  br i1 %15, label %17, label %16

16:                                               ; preds = %4
  store i32 -12, ptr %5, align 4
  store i32 1, ptr %12, align 4
  br label %67

17:                                               ; preds = %4
  %18 = load ptr, ptr %8, align 8, !tbaa !73
  %19 = icmp ne ptr %18, null
  br i1 %19, label %20, label %34

20:                                               ; preds = %17
  %21 = load ptr, ptr %10, align 8, !tbaa !76
  %22 = getelementptr inbounds nuw %struct.PacketListEntry, ptr %21, i32 0, i32 1
  call void @get_packet_defaults(ptr noundef %22)
  %23 = load ptr, ptr %8, align 8, !tbaa !73
  %24 = load ptr, ptr %10, align 8, !tbaa !76
  %25 = getelementptr inbounds nuw %struct.PacketListEntry, ptr %24, i32 0, i32 1
  %26 = load ptr, ptr %7, align 8, !tbaa !4
  %27 = call i32 %23(ptr noundef %25, ptr noundef %26)
  store i32 %27, ptr %11, align 4, !tbaa !28
  %28 = load i32, ptr %11, align 4, !tbaa !28
  %29 = icmp slt i32 %28, 0
  br i1 %29, label %30, label %33

30:                                               ; preds = %20
  %31 = load ptr, ptr %10, align 8, !tbaa !76
  call void @av_free(ptr noundef %31)
  %32 = load i32, ptr %11, align 4, !tbaa !28
  store i32 %32, ptr %5, align 4
  store i32 1, ptr %12, align 4
  br label %67

33:                                               ; preds = %20
  br label %46

34:                                               ; preds = %17
  %35 = load ptr, ptr %7, align 8, !tbaa !4
  %36 = call i32 @av_packet_make_refcounted(ptr noundef %35)
  store i32 %36, ptr %11, align 4, !tbaa !28
  %37 = load i32, ptr %11, align 4, !tbaa !28
  %38 = icmp slt i32 %37, 0
  br i1 %38, label %39, label %42

39:                                               ; preds = %34
  %40 = load ptr, ptr %10, align 8, !tbaa !76
  call void @av_free(ptr noundef %40)
  %41 = load i32, ptr %11, align 4, !tbaa !28
  store i32 %41, ptr %5, align 4
  store i32 1, ptr %12, align 4
  br label %67

42:                                               ; preds = %34
  %43 = load ptr, ptr %10, align 8, !tbaa !76
  %44 = getelementptr inbounds nuw %struct.PacketListEntry, ptr %43, i32 0, i32 1
  %45 = load ptr, ptr %7, align 8, !tbaa !4
  call void @av_packet_move_ref(ptr noundef %44, ptr noundef %45)
  br label %46

46:                                               ; preds = %42, %33
  %47 = load ptr, ptr %10, align 8, !tbaa !76
  %48 = getelementptr inbounds nuw %struct.PacketListEntry, ptr %47, i32 0, i32 0
  store ptr null, ptr %48, align 8, !tbaa !78
  %49 = load ptr, ptr %6, align 8, !tbaa !74
  %50 = getelementptr inbounds nuw %struct.PacketList, ptr %49, i32 0, i32 0
  %51 = load ptr, ptr %50, align 8, !tbaa !80
  %52 = icmp ne ptr %51, null
  br i1 %52, label %53, label %59

53:                                               ; preds = %46
  %54 = load ptr, ptr %10, align 8, !tbaa !76
  %55 = load ptr, ptr %6, align 8, !tbaa !74
  %56 = getelementptr inbounds nuw %struct.PacketList, ptr %55, i32 0, i32 1
  %57 = load ptr, ptr %56, align 8, !tbaa !82
  %58 = getelementptr inbounds nuw %struct.PacketListEntry, ptr %57, i32 0, i32 0
  store ptr %54, ptr %58, align 8, !tbaa !78
  br label %63

59:                                               ; preds = %46
  %60 = load ptr, ptr %10, align 8, !tbaa !76
  %61 = load ptr, ptr %6, align 8, !tbaa !74
  %62 = getelementptr inbounds nuw %struct.PacketList, ptr %61, i32 0, i32 0
  store ptr %60, ptr %62, align 8, !tbaa !80
  br label %63

63:                                               ; preds = %59, %53
  %64 = load ptr, ptr %10, align 8, !tbaa !76
  %65 = load ptr, ptr %6, align 8, !tbaa !74
  %66 = getelementptr inbounds nuw %struct.PacketList, ptr %65, i32 0, i32 1
  store ptr %64, ptr %66, align 8, !tbaa !82
  store i32 0, ptr %5, align 4
  store i32 1, ptr %12, align 4
  br label %67

67:                                               ; preds = %63, %39, %30, %16
  call void @llvm.lifetime.end.p0(i64 4, ptr %11) #9
  call void @llvm.lifetime.end.p0(i64 8, ptr %10) #9
  %68 = load i32, ptr %5, align 4
  ret i32 %68
}