; Function Attrs: nounwind uwtable
define range(i32 -2147483648, 1) i32 @avpriv_packet_list_put(ptr noundef captures(none) %0, ptr noundef %1, ptr noundef readonly captures(address_is_null) %2, i32 noundef %3) local_unnamed_addr #3 {
  %5 = tail call noalias ptr @av_malloc(i64 noundef 112) #16
  %.not = icmp eq ptr %5, null
  br i1 %.not, label %58, label %6

6:                                                ; preds = %4
  %.not27 = icmp eq ptr %2, null
  br i1 %.not27, label %16, label %7

7:                                                ; preds = %6
  %8 = getelementptr inbounds nuw i8, ptr %5, i64 8
  tail call void @llvm.memset.p0.i64(ptr noundef nonnull align 8 dereferenceable(104) %8, i8 0, i64 96, i1 false)
  %9 = getelementptr inbounds nuw i8, ptr %5, i64 16
  store i64 -9223372036854775808, ptr %9, align 8, !tbaa !4
  %10 = getelementptr inbounds nuw i8, ptr %5, i64 24
  store i64 -9223372036854775808, ptr %10, align 8, !tbaa !15
  %11 = getelementptr inbounds nuw i8, ptr %5, i64 80
  store i64 -1, ptr %11, align 8, !tbaa !16
  %12 = getelementptr inbounds nuw i8, ptr %5, i64 104
  store i64 4294967296, ptr %12, align 8
  %13 = tail call i32 %2(ptr noundef nonnull %8, ptr noundef %1) #16
  %14 = icmp slt i32 %13, 0
  br i1 %14, label %15, label %51

15:                                               ; preds = %7
  tail call void @av_free(ptr noundef nonnull %5) #16
  br label %58

16:                                               ; preds = %6
  %17 = load ptr, ptr %1, align 8, !tbaa !20
  %.not.i = icmp eq ptr %17, null
  br i1 %.not.i, label %18, label %av_packet_make_refcounted.exit

18:                                               ; preds = %16
  %19 = getelementptr inbounds nuw i8, ptr %1, i64 32
  %20 = load i32, ptr %19, align 8, !tbaa !32
  %or.cond.i.i = icmp ugt i32 %20, 2147483582
  br i1 %or.cond.i.i, label %45, label %21

21:                                               ; preds = %18
  %22 = add nuw nsw i32 %20, 64
  %23 = zext nneg i32 %22 to i64
  %24 = tail call i32 @av_buffer_realloc(ptr noundef nonnull %1, i64 noundef %23) #16
  %25 = icmp slt i32 %24, 0
  br i1 %25, label %45, label %26

26:                                               ; preds = %21
  %27 = load ptr, ptr %1, align 8, !tbaa !27
  %28 = getelementptr inbounds nuw i8, ptr %27, i64 8
  %29 = load ptr, ptr %28, align 8, !tbaa !28
  %30 = zext nneg i32 %20 to i64
  %31 = getelementptr inbounds nuw i8, ptr %29, i64 %30
  tail call void @llvm.memset.p0.i64(ptr noundef nonnull align 1 dereferenceable(64) %31, i8 0, i64 64, i1 false)
  %32 = load i32, ptr %19, align 8, !tbaa !32
  %.not13.i = icmp eq i32 %32, 0
  br i1 %.not13.i, label %40, label %33

33:                                               ; preds = %26
  %34 = load ptr, ptr %1, align 8, !tbaa !20
  %35 = getelementptr inbounds nuw i8, ptr %34, i64 8
  %36 = load ptr, ptr %35, align 8, !tbaa !28
  %37 = getelementptr inbounds nuw i8, ptr %1, i64 24
  %38 = load ptr, ptr %37, align 8, !tbaa !31
  %39 = sext i32 %32 to i64
  tail call void @llvm.memcpy.p0.p0.i64(ptr align 1 %36, ptr align 1 %38, i64 %39, i1 false)
  br label %40

40:                                               ; preds = %33, %26
  %41 = load ptr, ptr %1, align 8, !tbaa !20
  %42 = getelementptr inbounds nuw i8, ptr %41, i64 8
  %43 = load ptr, ptr %42, align 8, !tbaa !28
  %44 = getelementptr inbounds nuw i8, ptr %1, i64 24
  store ptr %43, ptr %44, align 8, !tbaa !31
  br label %av_packet_make_refcounted.exit

45:                                               ; preds = %21, %18
  %.0.i.ph = phi i32 [ -22, %18 ], [ %24, %21 ]
  tail call void @av_free(ptr noundef nonnull %5) #16
  br label %58

av_packet_make_refcounted.exit:                   ; preds = %40, %16
  %46 = getelementptr inbounds nuw i8, ptr %5, i64 8
  tail call void @llvm.memcpy.p0.p0.i64(ptr noundef nonnull align 8 dereferenceable(104) %46, ptr noundef nonnull align 8 dereferenceable(104) %1, i64 104, i1 false), !tbaa.struct !51
  tail call void @llvm.memset.p0.i64(ptr noundef nonnull align 8 dereferenceable(104) %1, i8 0, i64 96, i1 false)
  %47 = getelementptr inbounds nuw i8, ptr %1, i64 8
  store i64 -9223372036854775808, ptr %47, align 8, !tbaa !4
  %48 = getelementptr inbounds nuw i8, ptr %1, i64 16
  store i64 -9223372036854775808, ptr %48, align 8, !tbaa !15
  %49 = getelementptr inbounds nuw i8, ptr %1, i64 72
  store i64 -1, ptr %49, align 8, !tbaa !16
  %50 = getelementptr inbounds nuw i8, ptr %1, i64 96
  store i64 4294967296, ptr %50, align 8
  br label %51

51:                                               ; preds = %7, %av_packet_make_refcounted.exit
  store ptr null, ptr %5, align 8, !tbaa !55
  %52 = load ptr, ptr %0, align 8, !tbaa !58
  %.not28 = icmp eq ptr %52, null
  br i1 %.not28, label %56, label %53

53:                                               ; preds = %51
  %54 = getelementptr inbounds nuw i8, ptr %0, i64 8
  %55 = load ptr, ptr %54, align 8, !tbaa !60
  br label %56

56:                                               ; preds = %51, %53
  %.sink = phi ptr [ %55, %53 ], [ %0, %51 ]
  store ptr %5, ptr %.sink, align 8, !tbaa !61
  %57 = getelementptr inbounds nuw i8, ptr %0, i64 8
  store ptr %5, ptr %57, align 8, !tbaa !60
  br label %58

58:                                               ; preds = %4, %56, %45, %15
  %.0 = phi i32 [ %13, %15 ], [ 0, %56 ], [ %.0.i.ph, %45 ], [ -12, %4 ]
  ret i32 %.0
}